; Function Attrs: mustprogress uwtable
define void @_ZN17LteRlcGraphDialog9showEventEP10QShowEvent(ptr nocapture noundef nonnull readonly align 8 dereferenceable(268) %0, ptr nocapture noundef readnone %1) unnamed_addr #0 align 2 {
  %3 = getelementptr inbounds i8, ptr %0, i64 136
  %4 = load ptr, ptr %3, align 8
  %5 = getelementptr inbounds i8, ptr %4, i64 176
  %6 = load ptr, ptr %5, align 8
  tail call void @_ZN11QCustomPlot11rescaleAxesEb(ptr noundef nonnull align 8 dereferenceable(513) %6, i1 noundef zeroext true)
  %7 = getelementptr inbounds i8, ptr %6, i64 40
  %8 = load ptr, ptr %7, align 8
  %9 = getelementptr inbounds i8, ptr %8, i64 304
  %.sroa.0.0.copyload.i.i = load double, ptr %9, align 8
  %.sroa.2.0..sroa_idx.i.i = getelementptr inbounds i8, ptr %8, i64 312
  %.sroa.2.0.copyload.i.i = load double, ptr %.sroa.2.0..sroa_idx.i.i, align 8
  %10 = getelementptr inbounds i8, ptr %8, i64 64
  %11 = load ptr, ptr %10, align 8
  %12 = getelementptr inbounds i8, ptr %11, i64 92
  %13 = getelementptr inbounds i8, ptr %11, i64 100
  %14 = load i32, ptr %13, align 4
  %15 = load i32, ptr %12, align 4
  %16 = add i32 %14, 1
  %17 = sub i32 %16, %15
  %18 = sitofp i32 %17 to double
  %19 = fadd double %18, 2.000000e+01
  %20 = fdiv double %19, %18
  %21 = fadd double %.sroa.0.0.copyload.i.i, %.sroa.2.0.copyload.i.i
  %22 = fmul double %21, 5.000000e-01
  tail call void @_ZN7QCPAxis10scaleRangeEdd(ptr noundef nonnull align 8 dereferenceable(472) %8, double noundef %20, double noundef %22)
  %23 = getelementptr inbounds i8, ptr %6, i64 48
  %24 = load ptr, ptr %23, align 8
  %25 = getelementptr inbounds i8, ptr %24, i64 64
  %26 = load ptr, ptr %25, align 8
  %27 = getelementptr inbounds i8, ptr %26, i64 104
  %28 = load i32, ptr %27, align 4
  %29 = getelementptr inbounds i8, ptr %26, i64 96
  %30 = load i32, ptr %29, align 4
  %31 = add i32 %28, 1
  %32 = sub i32 %31, %30
  %33 = sitofp i32 %32 to double
  %34 = fadd double %33, 2.000000e+01
  %35 = fdiv double %34, %33
  %36 = getelementptr inbounds i8, ptr %24, i64 304
  %.sroa.0.0.copyload.i15.i = load double, ptr %36, align 8
  %.sroa.2.0..sroa_idx.i16.i = getelementptr inbounds i8, ptr %24, i64 312
  %.sroa.2.0.copyload.i17.i = load double, ptr %.sroa.2.0..sroa_idx.i16.i, align 8
  %37 = fadd double %.sroa.0.0.copyload.i15.i, %.sroa.2.0.copyload.i17.i
  %38 = fmul double %37, 5.000000e-01
  tail call void @_ZN7QCPAxis10scaleRangeEdd(ptr noundef nonnull align 8 dereferenceable(472) %24, double noundef %35, double noundef %38)
  tail call void @_ZN11QCustomPlot6replotENS_15RefreshPriorityE(ptr noundef nonnull align 8 dereferenceable(513) %6, i32 noundef 2)
  ret void
}